; Function Attrs: mustprogress uwtable
define void @_ZN6icu_776number4impl14SimpleModifierC2Ev(ptr noundef nonnull align 8 dereferenceable(104) initializes((0, 18), (72, 74), (76, 88)) %0) unnamed_addr #4 align 2 personality ptr @__gxx_personality_v0 {
  store ptr getelementptr inbounds nuw inrange(-16, 72) (i8, ptr @_ZTVN6icu_776number4impl14SimpleModifierE, i64 16), ptr %0, align 8, !tbaa !13
  %2 = getelementptr inbounds nuw i8, ptr %0, i64 8
  store ptr getelementptr inbounds nuw inrange(-16, 88) (i8, ptr @_ZTVN6icu_7713UnicodeStringE, i64 16), ptr %2, align 8, !tbaa !13
  %3 = getelementptr inbounds nuw i8, ptr %0, i64 16
  store i16 2, ptr %3, align 8, !tbaa !21
  %4 = getelementptr inbounds nuw i8, ptr %0, i64 72
  store i8 0, ptr %4, align 8, !tbaa !21
  %5 = getelementptr inbounds nuw i8, ptr %0, i64 73
  store i8 0, ptr %5, align 1, !tbaa !33
  %6 = getelementptr inbounds nuw i8, ptr %0, i64 76
  store i32 0, ptr %6, align 4, !tbaa !39
  %7 = getelementptr inbounds nuw i8, ptr %0, i64 80
  store i32 -1, ptr %7, align 8, !tbaa !40
  %8 = getelementptr inbounds nuw i8, ptr %0, i64 84
  store i32 0, ptr %8, align 4, !tbaa !41
  %9 = getelementptr inbounds nuw i8, ptr %0, i64 88
  invoke void @_ZN6icu_776number4impl8Modifier10ParametersC1Ev(ptr noundef nonnull align 8 dereferenceable(16) %9)
          to label %10 unwind label %11

10:                                               ; preds = %1
  ret void

11:                                               ; preds = %1
  %12 = landingpad { ptr, i32 }
          cleanup
  tail call void @_ZN6icu_7713UnicodeStringD1Ev(ptr noundef nonnull align 8 dereferenceable(64) %2) #19
  resume { ptr, i32 } %12
}